target datalayout = "e-m:e-p270:32:32-p271:32:32-p272:64:64-i64:64-i128:128-f80:128-n8:16:32:64-S128"
target triple = "x86_64-pc-linux-gnu"

%struct._packet_info = type { ptr, ptr, i32, i32, %struct.nstime_t, %struct.nstime_t, %struct.nstime_t, i32, ptr, ptr, ptr, ptr, %struct._address, %struct._address, %struct._address, %struct._address, %struct._address, %struct._address, i32, ptr, i32, %struct.anon, i32, i32, i32, i32, ptr, i32, ptr, ptr, i16, i16, i32, i32, i16, i32, i32, ptr, ptr, ptr, i8, i8, i16, i16, i16, i32, i16, i16, ptr, ptr, ptr, ptr, ptr, i32 }
%struct.nstime_t = type { i64, i32 }
%struct._address = type { i32, i32, ptr, ptr }
%struct.anon = type { i8, [3 x i8] }
%struct._ctdb_control_t = type { i32, i32, i32, %struct.nstime_t }
%struct._proto_node = type { ptr, ptr, ptr, ptr, ptr, ptr }
%struct.field_info = type { ptr, i32, i32, i32, i32, i32, i32, ptr, ptr, ptr, i32, i32 }

@hf_ctdb_request_in = internal global i32 0, align 4
@hf_ctdb_response_in = internal global i32 0, align 4
@hf_ctdb_time = internal global i32 0, align 4

; Function Attrs: nounwind uwtable
define internal void @proto_item_set_generated(ptr noundef %0) #0 {
  %2 = alloca ptr, align 8
  store ptr %0, ptr %2, align 8
  %3 = load ptr, ptr %2, align 8
  %4 = icmp ne ptr %3, null
  br i1 %4, label %5, label %24

5:                                                ; preds = %1
  br label %6

6:                                                ; preds = %5
  %7 = load ptr, ptr %2, align 8
  %8 = getelementptr inbounds %struct._proto_node, ptr %7, i32 0, i32 4
  %9 = load ptr, ptr %8, align 8
  %10 = icmp ne ptr %9, null
  br i1 %10, label %11, label %22

11:                                               ; preds = %6
  %12 = load ptr, ptr %2, align 8
  %13 = getelementptr inbounds %struct._proto_node, ptr %12, i32 0, i32 4
  %14 = load ptr, ptr %13, align 8
  %15 = getelementptr inbounds %struct.field_info, ptr %14, i32 0, i32 6
  %16 = load i32, ptr %15, align 4
  %17 = or i32 %16, 2
  %18 = load ptr, ptr %2, align 8
  %19 = getelementptr inbounds %struct._proto_node, ptr %18, i32 0, i32 4
  %20 = load ptr, ptr %19, align 8
  %21 = getelementptr inbounds %struct.field_info, ptr %20, i32 0, i32 6
  store i32 %17, ptr %21, align 4
  br label %22

22:                                               ; preds = %11, %6
  br label %23

23:                                               ; preds = %22
  br label %24

24:                                               ; preds = %23, %1
  ret void
}

; Function Attrs: nounwind uwtable
define internal void @ctdb_display_control(ptr noundef %0, ptr noundef %1, ptr noundef %2, ptr noundef %3) #0 {
  %5 = alloca ptr, align 8
  %6 = alloca ptr, align 8
  %7 = alloca ptr, align 8
  %8 = alloca ptr, align 8
  %9 = alloca ptr, align 8
  %10 = alloca %struct.nstime_t, align 8
  store ptr %0, ptr %5, align 8
  store ptr %1, ptr %6, align 8
  store ptr %2, ptr %7, align 8
  store ptr %3, ptr %8, align 8
  %11 = load ptr, ptr %8, align 8
  %12 = getelementptr inbounds %struct._ctdb_control_t, ptr %11, i32 0, i32 1
  %13 = load i32, ptr %12, align 4
  %14 = load ptr, ptr %5, align 8
  %15 = getelementptr inbounds %struct._packet_info, ptr %14, i32 0, i32 3
  %16 = load i32, ptr %15, align 4
  %17 = icmp ne i32 %13, %16
  br i1 %17, label %18, label %27

18:                                               ; preds = %4
  %19 = load ptr, ptr %6, align 8
  %20 = load i32, ptr @hf_ctdb_request_in, align 4
  %21 = load ptr, ptr %7, align 8
  %22 = load ptr, ptr %8, align 8
  %23 = getelementptr inbounds %struct._ctdb_control_t, ptr %22, i32 0, i32 1
  %24 = load i32, ptr %23, align 4
  %25 = call ptr @proto_tree_add_uint(ptr noundef %19, i32 noundef %20, ptr noundef %21, i32 noundef 0, i32 noundef 0, i32 noundef %24)
  store ptr %25, ptr %9, align 8
  %26 = load ptr, ptr %9, align 8
  call void @proto_item_set_generated(ptr noundef %26)
  br label %27

27:                                               ; preds = %18, %4
  %28 = load ptr, ptr %8, align 8
  %29 = getelementptr inbounds %struct._ctdb_control_t, ptr %28, i32 0, i32 2
  %30 = load i32, ptr %29, align 8
  %31 = icmp ne i32 %30, 0
  br i1 %31, label %32, label %49

32:                                               ; preds = %27
  %33 = load ptr, ptr %8, align 8
  %34 = getelementptr inbounds %struct._ctdb_control_t, ptr %33, i32 0, i32 2
  %35 = load i32, ptr %34, align 8
  %36 = load ptr, ptr %5, align 8
  %37 = getelementptr inbounds %struct._packet_info, ptr %36, i32 0, i32 3
  %38 = load i32, ptr %37, align 4
  %39 = icmp ne i32 %35, %38
  br i1 %39, label %40, label %49

40:                                               ; preds = %32
  %41 = load ptr, ptr %6, align 8
  %42 = load i32, ptr @hf_ctdb_response_in, align 4
  %43 = load ptr, ptr %7, align 8
  %44 = load ptr, ptr %8, align 8
  %45 = getelementptr inbounds %struct._ctdb_control_t, ptr %44, i32 0, i32 2
  %46 = load i32, ptr %45, align 8
  %47 = call ptr @proto_tree_add_uint(ptr noundef %41, i32 noundef %42, ptr noundef %43, i32 noundef 0, i32 noundef 0, i32 noundef %46)
  store ptr %47, ptr %9, align 8
  %48 = load ptr, ptr %9, align 8
  call void @proto_item_set_generated(ptr noundef %48)
  br label %49

49:                                               ; preds = %40, %32, %27
  %50 = load ptr, ptr %5, align 8
  %51 = getelementptr inbounds %struct._packet_info, ptr %50, i32 0, i32 3
  %52 = load i32, ptr %51, align 4
  %53 = load ptr, ptr %8, align 8
  %54 = getelementptr inbounds %struct._ctdb_control_t, ptr %53, i32 0, i32 2
  %55 = load i32, ptr %54, align 8
  %56 = icmp eq i32 %52, %55
  br i1 %56, label %57, label %67

57:                                               ; preds = %49
  %58 = load ptr, ptr %5, align 8
  %59 = getelementptr inbounds %struct._packet_info, ptr %58, i32 0, i32 4
  %60 = load ptr, ptr %8, align 8
  %61 = getelementptr inbounds %struct._ctdb_control_t, ptr %60, i32 0, i32 3
  call void @nstime_delta(ptr noundef %10, ptr noundef %59, ptr noundef %61)
  %62 = load ptr, ptr %6, align 8
  %63 = load i32, ptr @hf_ctdb_time, align 4
  %64 = load ptr, ptr %7, align 8
  %65 = call ptr @proto_tree_add_time(ptr noundef %62, i32 noundef %63, ptr noundef %64, i32 noundef 0, i32 noundef 0, ptr noundef %10)
  store ptr %65, ptr %9, align 8
  %66 = load ptr, ptr %9, align 8
  call void @proto_item_set_generated(ptr noundef %66)
  br label %67

67:                                               ; preds = %57, %49
  ret void
}